target datalayout = "e-m:e-p270:32:32-p271:32:32-p272:64:64-i64:64-i128:128-f80:128-n8:16:32:64-S128"
target triple = "x86_64-unknown-linux-gnu"

%"class.std::__cxx11::basic_string" = type { %"struct.std::__cxx11::basic_string<char>::_Alloc_hider", i64, %union.anon }
%"struct.std::__cxx11::basic_string<char>::_Alloc_hider" = type { ptr }
%union.anon = type { i64, [8 x i8] }
%"class.Assimp::Importer" = type { ptr }
%"class.Assimp::ImporterPimpl" = type { ptr, i8, ptr, i8, %"class.std::vector.0", %"class.std::vector.5", ptr, %"class.std::__cxx11::basic_string", %"class.std::__exception_ptr::exception_ptr", %"class.std::map", %"class.std::map.16", %"class.std::map.21", %"class.std::map.26", %"class.std::map.31", i8, ptr }
%"class.std::vector.0" = type { %"struct.std::_Vector_base.1" }
%"struct.std::_Vector_base.1" = type { %"struct.std::_Vector_base<Assimp::BaseImporter *, std::allocator<Assimp::BaseImporter *>>::_Vector_impl" }
%"struct.std::_Vector_base<Assimp::BaseImporter *, std::allocator<Assimp::BaseImporter *>>::_Vector_impl" = type { %"struct.std::_Vector_base<Assimp::BaseImporter *, std::allocator<Assimp::BaseImporter *>>::_Vector_impl_data" }
%"struct.std::_Vector_base<Assimp::BaseImporter *, std::allocator<Assimp::BaseImporter *>>::_Vector_impl_data" = type { ptr, ptr, ptr }
%"class.std::vector.5" = type { %"struct.std::_Vector_base.6" }
%"struct.std::_Vector_base.6" = type { %"struct.std::_Vector_base<Assimp::BaseProcess *, std::allocator<Assimp::BaseProcess *>>::_Vector_impl" }
%"struct.std::_Vector_base<Assimp::BaseProcess *, std::allocator<Assimp::BaseProcess *>>::_Vector_impl" = type { %"struct.std::_Vector_base<Assimp::BaseProcess *, std::allocator<Assimp::BaseProcess *>>::_Vector_impl_data" }
%"struct.std::_Vector_base<Assimp::BaseProcess *, std::allocator<Assimp::BaseProcess *>>::_Vector_impl_data" = type { ptr, ptr, ptr }
%"class.std::__exception_ptr::exception_ptr" = type { ptr }
%"class.std::map" = type { %"class.std::_Rb_tree" }
%"class.std::_Rb_tree" = type { %"struct.std::_Rb_tree<unsigned int, std::pair<const unsigned int, int>, std::_Select1st<std::pair<const unsigned int, int>>, std::less<unsigned int>>::_Rb_tree_impl" }
%"struct.std::_Rb_tree<unsigned int, std::pair<const unsigned int, int>, std::_Select1st<std::pair<const unsigned int, int>>, std::less<unsigned int>>::_Rb_tree_impl" = type { %"struct.std::_Rb_tree_key_compare", %"struct.std::_Rb_tree_header" }
%"struct.std::_Rb_tree_key_compare" = type { %"struct.std::less" }
%"struct.std::less" = type { i8 }
%"struct.std::_Rb_tree_header" = type { %"struct.std::_Rb_tree_node_base", i64 }
%"struct.std::_Rb_tree_node_base" = type { i32, ptr, ptr, ptr }
%"class.std::map.16" = type { %"class.std::_Rb_tree.17" }
%"class.std::_Rb_tree.17" = type { %"struct.std::_Rb_tree<unsigned int, std::pair<const unsigned int, float>, std::_Select1st<std::pair<const unsigned int, float>>, std::less<unsigned int>>::_Rb_tree_impl" }
%"struct.std::_Rb_tree<unsigned int, std::pair<const unsigned int, float>, std::_Select1st<std::pair<const unsigned int, float>>, std::less<unsigned int>>::_Rb_tree_impl" = type { %"struct.std::_Rb_tree_key_compare", %"struct.std::_Rb_tree_header" }
%"class.std::map.21" = type { %"class.std::_Rb_tree.22" }
%"class.std::_Rb_tree.22" = type { %"struct.std::_Rb_tree<unsigned int, std::pair<const unsigned int, std::__cxx11::basic_string<char>>, std::_Select1st<std::pair<const unsigned int, std::__cxx11::basic_string<char>>>, std::less<unsigned int>>::_Rb_tree_impl" }
%"struct.std::_Rb_tree<unsigned int, std::pair<const unsigned int, std::__cxx11::basic_string<char>>, std::_Select1st<std::pair<const unsigned int, std::__cxx11::basic_string<char>>>, std::less<unsigned int>>::_Rb_tree_impl" = type { %"struct.std::_Rb_tree_key_compare", %"struct.std::_Rb_tree_header" }
%"class.std::map.26" = type { %"class.std::_Rb_tree.27" }
%"class.std::_Rb_tree.27" = type { %"struct.std::_Rb_tree<unsigned int, std::pair<const unsigned int, aiMatrix4x4t<float>>, std::_Select1st<std::pair<const unsigned int, aiMatrix4x4t<float>>>, std::less<unsigned int>>::_Rb_tree_impl" }
%"struct.std::_Rb_tree<unsigned int, std::pair<const unsigned int, aiMatrix4x4t<float>>, std::_Select1st<std::pair<const unsigned int, aiMatrix4x4t<float>>>, std::less<unsigned int>>::_Rb_tree_impl" = type { %"struct.std::_Rb_tree_key_compare", %"struct.std::_Rb_tree_header" }
%"class.std::map.31" = type { %"class.std::_Rb_tree.32" }
%"class.std::_Rb_tree.32" = type { %"struct.std::_Rb_tree<unsigned int, std::pair<const unsigned int, void *>, std::_Select1st<std::pair<const unsigned int, void *>>, std::less<unsigned int>>::_Rb_tree_impl" }
%"struct.std::_Rb_tree<unsigned int, std::pair<const unsigned int, void *>, std::_Select1st<std::pair<const unsigned int, void *>>, std::less<unsigned int>>::_Rb_tree_impl" = type { %"struct.std::_Rb_tree_key_compare", %"struct.std::_Rb_tree_header" }

; Function Attrs: mustprogress nounwind uwtable
define noundef zeroext i1 @_ZNK6Assimp8Importer18IsDefaultIOHandlerEv(ptr noundef nonnull align 8 dereferenceable(8) %this) #0 align 2 {
entry:
  %this.addr = alloca ptr, align 8
  store ptr %this, ptr %this.addr, align 8
  %this1 = load ptr, ptr %this.addr, align 8
  %pimpl = getelementptr inbounds %"class.Assimp::Importer", ptr %this1, i32 0, i32 0
  %0 = load ptr, ptr %pimpl, align 8
  %mIsDefaultHandler = getelementptr inbounds %"class.Assimp::ImporterPimpl", ptr %0, i32 0, i32 1
  %1 = load i8, ptr %mIsDefaultHandler, align 8
  %tobool = trunc i8 %1 to i1
  ret i1 %tobool
}